target datalayout = "e-m:e-p270:32:32-p271:32:32-p272:64:64-i64:64-i128:128-f80:128-n8:16:32:64-S128"
target triple = "x86_64-pc-linux-gnu"

%struct.ident_t = type { i32, i32, i32, i32, ptr }

@1 = private unnamed_addr constant %struct.ident_t { i32 0, i32 514, i32 0, i32 22, ptr @0 }, align 8
@2 = private unnamed_addr constant %struct.ident_t { i32 0, i32 66, i32 0, i32 22, ptr @0 }, align 8

; Function Attrs: alwaysinline norecurse nounwind uwtable
define internal void @statevec_initDebugState.omp_outlined(ptr noalias noundef %0, ptr noalias noundef %1, ptr noundef nonnull align 8 dereferenceable(8) %2, ptr noundef nonnull align 8 dereferenceable(8) %3, ptr noundef nonnull align 8 dereferenceable(8) %4, ptr noundef nonnull align 8 dereferenceable(8) %5) #2 {
  %7 = alloca ptr, align 8
  %8 = alloca ptr, align 8
  %9 = alloca ptr, align 8
  %10 = alloca ptr, align 8
  %11 = alloca ptr, align 8
  %12 = alloca ptr, align 8
  %13 = alloca i64, align 8
  %14 = alloca i64, align 8
  %15 = alloca i64, align 8
  %16 = alloca i64, align 8
  %17 = alloca i64, align 8
  %18 = alloca i64, align 8
  %19 = alloca i64, align 8
  %20 = alloca i32, align 4
  %21 = alloca i64, align 8
  store ptr %0, ptr %7, align 8, !tbaa !19
  store ptr %1, ptr %8, align 8, !tbaa !19
  store ptr %2, ptr %9, align 8, !tbaa !21
  store ptr %3, ptr %10, align 8, !tbaa !33
  store ptr %4, ptr %11, align 8, !tbaa !21
  store ptr %5, ptr %12, align 8, !tbaa !33
  %22 = load ptr, ptr %9, align 8, !tbaa !21
  %23 = load ptr, ptr %10, align 8, !tbaa !33
  %24 = load ptr, ptr %11, align 8, !tbaa !21
  %25 = load ptr, ptr %12, align 8, !tbaa !33
  call void @llvm.lifetime.start.p0(i64 8, ptr %13) #3
  call void @llvm.lifetime.start.p0(i64 8, ptr %14) #3
  %26 = load i64, ptr %22, align 8, !tbaa !4
  store i64 %26, ptr %14, align 8, !tbaa !4
  call void @llvm.lifetime.start.p0(i64 8, ptr %15) #3
  %27 = load i64, ptr %14, align 8, !tbaa !4
  %28 = sub nsw i64 %27, 0
  %29 = sdiv i64 %28, 1
  %30 = sub nsw i64 %29, 1
  store i64 %30, ptr %15, align 8, !tbaa !4
  call void @llvm.lifetime.start.p0(i64 8, ptr %16) #3
  store i64 0, ptr %16, align 8, !tbaa !4
  call void @llvm.lifetime.end.p0(i64 8, ptr %16) #3
  %31 = load i64, ptr %14, align 8, !tbaa !4
  %32 = icmp slt i64 0, %31
  br i1 %32, label %33, label %82

33:                                               ; preds = %6
  call void @llvm.lifetime.start.p0(i64 8, ptr %17) #3
  store i64 0, ptr %17, align 8, !tbaa !4
  call void @llvm.lifetime.start.p0(i64 8, ptr %18) #3
  %34 = load i64, ptr %15, align 8, !tbaa !4
  store i64 %34, ptr %18, align 8, !tbaa !4
  call void @llvm.lifetime.start.p0(i64 8, ptr %19) #3
  store i64 1, ptr %19, align 8, !tbaa !4
  call void @llvm.lifetime.start.p0(i64 4, ptr %20) #3
  store i32 0, ptr %20, align 4, !tbaa !8
  call void @llvm.lifetime.start.p0(i64 8, ptr %21) #3
  %35 = load ptr, ptr %7, align 8
  %36 = load i32, ptr %35, align 4, !tbaa !8
  call void @__kmpc_for_static_init_8(ptr @1, i32 %36, i32 34, ptr %20, ptr %17, ptr %18, ptr %19, i64 1, i64 1)
  %37 = load i64, ptr %18, align 8, !tbaa !4
  %38 = load i64, ptr %15, align 8, !tbaa !4
  %39 = icmp sgt i64 %37, %38
  br i1 %39, label %40, label %42

40:                                               ; preds = %33
  %41 = load i64, ptr %15, align 8, !tbaa !4
  br label %44

42:                                               ; preds = %33
  %43 = load i64, ptr %18, align 8, !tbaa !4
  br label %44

44:                                               ; preds = %42, %40
  %45 = phi i64 [ %41, %40 ], [ %43, %42 ]
  store i64 %45, ptr %18, align 8, !tbaa !4
  %46 = load i64, ptr %17, align 8, !tbaa !4
  store i64 %46, ptr %13, align 8, !tbaa !4
  br label %47

47:                                               ; preds = %75, %44
  %48 = load i64, ptr %13, align 8, !tbaa !4
  %49 = load i64, ptr %18, align 8, !tbaa !4
  %50 = icmp sle i64 %48, %49
  br i1 %50, label %52, label %51

51:                                               ; preds = %47
  br label %78

52:                                               ; preds = %47
  %53 = load i64, ptr %13, align 8, !tbaa !4
  %54 = mul nsw i64 %53, 1
  %55 = add nsw i64 0, %54
  store i64 %55, ptr %21, align 8, !tbaa !4
  %56 = load i64, ptr %24, align 8, !tbaa !4
  %57 = load i64, ptr %21, align 8, !tbaa !4
  %58 = add nsw i64 %56, %57
  %59 = sitofp i64 %58 to double
  %60 = fmul double %59, 2.000000e+00
  %61 = fdiv double %60, 1.000000e+01
  %62 = load ptr, ptr %23, align 8, !tbaa !25
  %63 = load i64, ptr %21, align 8, !tbaa !4
  %64 = getelementptr inbounds double, ptr %62, i64 %63
  store double %61, ptr %64, align 8, !tbaa !10
  %65 = load i64, ptr %24, align 8, !tbaa !4
  %66 = load i64, ptr %21, align 8, !tbaa !4
  %67 = add nsw i64 %65, %66
  %68 = sitofp i64 %67 to double
  %69 = call double @llvm.fmuladd.f64(double %68, double 2.000000e+00, double 1.000000e+00)
  %70 = fdiv double %69, 1.000000e+01
  %71 = load ptr, ptr %25, align 8, !tbaa !25
  %72 = load i64, ptr %21, align 8, !tbaa !4
  %73 = getelementptr inbounds double, ptr %71, i64 %72
  store double %70, ptr %73, align 8, !tbaa !10
  br label %74

74:                                               ; preds = %52
  br label %75

75:                                               ; preds = %74
  %76 = load i64, ptr %13, align 8, !tbaa !4
  %77 = add nsw i64 %76, 1
  store i64 %77, ptr %13, align 8, !tbaa !4
  br label %47

78:                                               ; preds = %51
  br label %79

79:                                               ; preds = %78
  %80 = load ptr, ptr %7, align 8
  %81 = load i32, ptr %80, align 4, !tbaa !8
  call void @__kmpc_for_static_fini(ptr @1, i32 %81)
  call void @llvm.lifetime.end.p0(i64 8, ptr %21) #3
  call void @llvm.lifetime.end.p0(i64 4, ptr %20) #3
  call void @llvm.lifetime.end.p0(i64 8, ptr %19) #3
  call void @llvm.lifetime.end.p0(i64 8, ptr %18) #3
  call void @llvm.lifetime.end.p0(i64 8, ptr %17) #3
  br label %82

82:                                               ; preds = %79, %6
  call void @llvm.lifetime.end.p0(i64 8, ptr %15) #3
  call void @llvm.lifetime.end.p0(i64 8, ptr %14) #3
  call void @llvm.lifetime.end.p0(i64 8, ptr %13) #3
  %83 = load ptr, ptr %7, align 8
  %84 = load i32, ptr %83, align 4, !tbaa !8
  call void @__kmpc_barrier(ptr @2, i32 %84)
  ret void
}