; Function Attrs: alwaysinline norecurse nounwind uwtable
define internal void @statevec_initDebugState.omp_outlined(ptr noalias noundef readonly captures(none) %0, ptr noalias readnone captures(none) %1, ptr noundef nonnull readonly align 8 captures(none) dereferenceable(8) %2, ptr noundef nonnull readonly align 8 captures(none) dereferenceable(8) %3, ptr noundef nonnull readonly align 8 captures(none) dereferenceable(8) %4, ptr noundef nonnull readonly align 8 captures(none) dereferenceable(8) %5) #3 {
  %7 = alloca i64, align 8
  %8 = alloca i64, align 8
  %9 = alloca i64, align 8
  %10 = alloca i32, align 4
  %11 = load i64, ptr %2, align 8, !tbaa !16
  %12 = icmp sgt i64 %11, 0
  %.pre = load i32, ptr %0, align 4, !tbaa !18
  br i1 %12, label %13, label %31

13:                                               ; preds = %6
  %14 = add nsw i64 %11, -1
  call void @llvm.lifetime.start.p0(i64 8, ptr nonnull %7) #4
  store i64 0, ptr %7, align 8, !tbaa !16
  call void @llvm.lifetime.start.p0(i64 8, ptr nonnull %8) #4
  store i64 %14, ptr %8, align 8, !tbaa !16
  call void @llvm.lifetime.start.p0(i64 8, ptr nonnull %9) #4
  store i64 1, ptr %9, align 8, !tbaa !16
  call void @llvm.lifetime.start.p0(i64 4, ptr nonnull %10) #4
  store i32 0, ptr %10, align 4, !tbaa !18
  call void @__kmpc_for_static_init_8(ptr nonnull @1, i32 %.pre, i32 34, ptr nonnull %10, ptr nonnull %7, ptr nonnull %8, ptr nonnull %9, i64 1, i64 1)
  %15 = load i64, ptr %8, align 8, !tbaa !16
  %16 = call i64 @llvm.smin.i64(i64 %15, i64 %14)
  store i64 %16, ptr %8, align 8, !tbaa !16
  %17 = load i64, ptr %7, align 8, !tbaa !16
  %.not18 = icmp sgt i64 %17, %16
  br i1 %.not18, label %._crit_edge, label %.lr.ph

.lr.ph:                                           ; preds = %13
  %18 = load i64, ptr %4, align 8, !tbaa !16
  %19 = load ptr, ptr %3, align 8, !tbaa !26
  %20 = load ptr, ptr %5, align 8, !tbaa !26
  br label %21

21:                                               ; preds = %.lr.ph, %21
  %.019 = phi i64 [ %17, %.lr.ph ], [ %30, %21 ]
  %22 = add nsw i64 %18, %.019
  %23 = sitofp i64 %22 to double
  %24 = fmul double %23, 2.000000e+00
  %25 = fdiv double %24, 1.000000e+01
  %26 = getelementptr inbounds double, ptr %19, i64 %.019
  store double %25, ptr %26, align 8, !tbaa !4
  %27 = call double @llvm.fmuladd.f64(double %23, double 2.000000e+00, double 1.000000e+00)
  %28 = fdiv double %27, 1.000000e+01
  %29 = getelementptr inbounds double, ptr %20, i64 %.019
  store double %28, ptr %29, align 8, !tbaa !4
  %30 = add i64 %.019, 1
  %exitcond.not = icmp eq i64 %.019, %16
  br i1 %exitcond.not, label %._crit_edge, label %21

._crit_edge:                                      ; preds = %21, %13
  call void @__kmpc_for_static_fini(ptr nonnull @1, i32 %.pre)
  call void @llvm.lifetime.end.p0(i64 4, ptr nonnull %10) #4
  call void @llvm.lifetime.end.p0(i64 8, ptr nonnull %9) #4
  call void @llvm.lifetime.end.p0(i64 8, ptr nonnull %8) #4
  call void @llvm.lifetime.end.p0(i64 8, ptr nonnull %7) #4
  br label %31

31:                                               ; preds = %._crit_edge, %6
  call void @__kmpc_barrier(ptr nonnull @2, i32 %.pre)
  ret void
}